; Function Attrs: mustprogress nofree norecurse nosync nounwind willreturn memory(readwrite, inaccessiblemem: none) uwtable
define hidden void @_ZN21ExceptionHandlerTable13copy_bytes_toEPh(ptr nocapture noundef nonnull readonly align 8 dereferenceable(17) %0, ptr nocapture noundef writeonly %1) local_unnamed_addr #5 align 2 {
  %3 = load ptr, ptr %0, align 8
  %4 = getelementptr inbounds i8, ptr %0, i64 8
  %5 = load i32, ptr %4, align 8
  %6 = mul nsw i32 %5, 12
  %7 = add i32 %6, 7
  %8 = and i32 %7, -8
  %9 = sext i32 %8 to i64
  tail call void @llvm.memmove.p0.p0.i64(ptr align 1 %1, ptr align 4 %3, i64 %9, i1 false)
  ret void
}